; Function Attrs: mustprogress uwtable
define dso_local noundef float @_ZN24btConstraintSolverPoolMt10solveGroupEPP17btCollisionObjectiPP20btPersistentManifoldiPP17btTypedConstraintiRK19btContactSolverInfoP12btIDebugDrawP12btDispatcher(ptr noundef nonnull readonly align 8 captures(none) dereferenceable(44) %0, ptr noundef %1, i32 noundef %2, ptr noundef %3, i32 noundef %4, ptr noundef %5, i32 noundef %6, ptr noundef nonnull align 4 dereferenceable(128) %7, ptr noundef %8, ptr noundef %9) unnamed_addr #0 align 2 {
  %11 = getelementptr inbounds nuw i8, ptr %0, i64 24
  %12 = load ptr, ptr %11, align 8, !tbaa !4
  %13 = getelementptr inbounds nuw i8, ptr %12, i64 8
  %14 = tail call noundef zeroext i1 @_ZN11btSpinMutex7tryLockEv(ptr noundef nonnull align 4 dereferenceable(4) %13)
  br i1 %14, label %_ZN24btConstraintSolverPoolMt22getAndLockThreadSolverEv.exit, label %.lr.ph.i

.lr.ph.i:                                         ; preds = %10
  %15 = getelementptr inbounds nuw i8, ptr %0, i64 12
  br label %16

16:                                               ; preds = %16, %.lr.ph.i
  %.0712.i = phi i32 [ 0, %.lr.ph.i ], [ %19, %16 ]
  %17 = add nsw i32 %.0712.i, 1
  %18 = load i32, ptr %15, align 4, !tbaa !13
  %19 = srem i32 %17, %18
  %20 = load ptr, ptr %11, align 8, !tbaa !4
  %21 = sext i32 %19 to i64
  %22 = getelementptr inbounds %"struct.btConstraintSolverPoolMt::ThreadSolver", ptr %20, i64 %21
  %23 = getelementptr inbounds nuw i8, ptr %22, i64 8
  %24 = tail call noundef zeroext i1 @_ZN11btSpinMutex7tryLockEv(ptr noundef nonnull align 4 dereferenceable(4) %23)
  br i1 %24, label %_ZN24btConstraintSolverPoolMt22getAndLockThreadSolverEv.exit, label %16

_ZN24btConstraintSolverPoolMt22getAndLockThreadSolverEv.exit: ; preds = %16, %10
  %.lcssa.i = phi ptr [ %12, %10 ], [ %22, %16 ]
  %25 = load ptr, ptr %.lcssa.i, align 8, !tbaa !30
  %26 = load ptr, ptr %25, align 8, !tbaa !34
  %27 = getelementptr inbounds nuw i8, ptr %26, i64 24
  %28 = load ptr, ptr %27, align 8
  %29 = tail call noundef float %28(ptr noundef nonnull align 8 dereferenceable(8) %25, ptr noundef %1, i32 noundef %2, ptr noundef %3, i32 noundef %4, ptr noundef %5, i32 noundef %6, ptr noundef nonnull align 4 dereferenceable(128) %7, ptr noundef %8, ptr noundef %9)
  %30 = getelementptr inbounds nuw i8, ptr %.lcssa.i, i64 8
  tail call void @_ZN11btSpinMutex6unlockEv(ptr noundef nonnull align 4 dereferenceable(4) %30)
  ret float 0.000000e+00
}